target datalayout = "e-m:e-p270:32:32-p271:32:32-p272:64:64-i64:64-i128:128-f80:128-n8:16:32:64-S128"
target triple = "x86_64-pc-linux-gnu"

@.str.4 = private unnamed_addr constant [2 x i8] c"\0A\00", align 1
@.str.5 = private unnamed_addr constant [35 x i8] c"    bufnorm [options] [selection]\0A\00", align 1
@.str.6 = private unnamed_addr constant [76 x i8] c"Insert buffer cells into the design as needed, to make sure that each wire\0A\00", align 1
@.str.7 = private unnamed_addr constant [74 x i8] c"has exactly one driving cell port, and aliasing wires are buffered using\0A\00", align 1
@.str.8 = private unnamed_addr constant [57 x i8] c"buffer cells, than can be chained in a canonical order.\0A\00", align 1
@.str.9 = private unnamed_addr constant [74 x i8] c"Running 'bufnorm' on the whole design enters 'buffered-normalized mode'.\0A\00", align 1
@.str.10 = private unnamed_addr constant [10 x i8] c"    -buf\0A\00", align 1
@.str.11 = private unnamed_addr constant [79 x i8] c"        Create $buf cells for all buffers. The default is to use $_BUF_ cells\0A\00", align 1
@.str.12 = private unnamed_addr constant [74 x i8] c"        for sigle-bit buffers and $buf cells only for multi-bit buffers.\0A\00", align 1
@.str.13 = private unnamed_addr constant [12 x i8] c"    -chain\0A\00", align 1
@.str.14 = private unnamed_addr constant [75 x i8] c"        Chain all alias wires. By default only wires with positive-valued\0A\00", align 1
@.str.15 = private unnamed_addr constant [58 x i8] c"        'chain' or 'keep' attribute on them are chained.\0A\00", align 1
@.str.16 = private unnamed_addr constant [13 x i8] c"    -output\0A\00", align 1
@.str.17 = private unnamed_addr constant [47 x i8] c"        Enable chaining of ouput ports wires.\0A\00", align 1
@.str.18 = private unnamed_addr constant [13 x i8] c"    -public\0A\00", align 1
@.str.19 = private unnamed_addr constant [52 x i8] c"        Enable chaining of wires wth public names.\0A\00", align 1
@.str.20 = private unnamed_addr constant [14 x i8] c"    -nochain\0A\00", align 1
@.str.21 = private unnamed_addr constant [59 x i8] c"        Disable chaining of wires with 'chain' attribute.\0A\00", align 1
@.str.22 = private unnamed_addr constant [13 x i8] c"    -nokeep\0A\00", align 1
@.str.23 = private unnamed_addr constant [58 x i8] c"        Disable chaining of wires with 'keep' attribute.\0A\00", align 1
@.str.24 = private unnamed_addr constant [11 x i8] c"    -flat\0A\00", align 1
@.str.25 = private unnamed_addr constant [41 x i8] c"        Alias for -nokeep and -nochain.\0A\00", align 1
@.str.26 = private unnamed_addr constant [15 x i8] c"    -nosticky\0A\00", align 1
@.str.27 = private unnamed_addr constant [73 x i8] c"        Disable 'sticky' behavior of output ports already driving whole\0A\00", align 1
@.str.28 = private unnamed_addr constant [65 x i8] c"        wires, and always enforce canonical sort order instead.\0A\00", align 1
@.str.29 = private unnamed_addr constant [16 x i8] c"    -alphasort\0A\00", align 1
@.str.30 = private unnamed_addr constant [69 x i8] c"        Strictly use alphanumeric sort for chain-order. (Default is\0A\00", align 1
@.str.31 = private unnamed_addr constant [71 x i8] c"        to chain 'keep' wires first, then ports in declaration order,\0A\00", align 1
@.str.32 = private unnamed_addr constant [63 x i8] c"        and then the other wires in alphanumeric sort order.)\0A\00", align 1
@.str.33 = private unnamed_addr constant [76 x i8] c"Run 'bufnorm' with -pos, -bits, or -conn on the whole design to remove all\0A\00", align 1
@.str.34 = private unnamed_addr constant [62 x i8] c"$buf buffer cells and exit 'buffered-normalized mode' again.\0A\00", align 1
@.str.35 = private unnamed_addr constant [10 x i8] c"    -pos\0A\00", align 1
@.str.36 = private unnamed_addr constant [76 x i8] c"        Create (multi- and single-bit) $pos cells instead $buf and $_BUF_.\0A\00", align 1
@.str.37 = private unnamed_addr constant [11 x i8] c"    -bits\0A\00", align 1
@.str.38 = private unnamed_addr constant [72 x i8] c"        Create arrays of $_BUF_ cells instead of multi-bit $buf cells.\0A\00", align 1
@.str.39 = private unnamed_addr constant [11 x i8] c"    -conn\0A\00", align 1
@.str.40 = private unnamed_addr constant [62 x i8] c"        Create 'direct connections' instead of buffer cells.\0A\00", align 1
@.str.41 = private unnamed_addr constant [13 x i8] c"    -nomode\0A\00", align 1
@.str.42 = private unnamed_addr constant [73 x i8] c"        Do not automatically enter or leave 'buffered-normalized mode'.\0A\00", align 1
@.str.43 = private unnamed_addr constant [69 x i8] c"The 'bufnorm' command can also be used to just switch in and out of\0A\00", align 1
@.str.44 = private unnamed_addr constant [65 x i8] c"'buffered-normalized mode' and run the low-level re-normalizer.\0A\00", align 1
@.str.45 = private unnamed_addr constant [13 x i8] c"    -update\0A\00", align 1
@.str.46 = private unnamed_addr constant [62 x i8] c"        Enter 'buffered-normalized mode' and (re-)normalize.\0A\00", align 1
@.str.47 = private unnamed_addr constant [12 x i8] c"    -reset\0A\00", align 1
@.str.48 = private unnamed_addr constant [72 x i8] c"        Leave 'buffered-normalized mode' without changing the netlist.\0A\00", align 1

; Function Attrs: mustprogress uwtable
define internal void @_ZN12_GLOBAL__N_111BufnormPass4helpEv(ptr noundef nonnull align 8 dereferenceable(104) %0) unnamed_addr #4 align 2 {
  %2 = alloca ptr, align 8
  store ptr %0, ptr %2, align 8, !tbaa !6
  call void (ptr, ...) @_ZN5Yosys3logEPKcz(ptr noundef @.str.4)
  call void (ptr, ...) @_ZN5Yosys3logEPKcz(ptr noundef @.str.5)
  call void (ptr, ...) @_ZN5Yosys3logEPKcz(ptr noundef @.str.4)
  call void (ptr, ...) @_ZN5Yosys3logEPKcz(ptr noundef @.str.6)
  call void (ptr, ...) @_ZN5Yosys3logEPKcz(ptr noundef @.str.7)
  call void (ptr, ...) @_ZN5Yosys3logEPKcz(ptr noundef @.str.8)
  call void (ptr, ...) @_ZN5Yosys3logEPKcz(ptr noundef @.str.4)
  call void (ptr, ...) @_ZN5Yosys3logEPKcz(ptr noundef @.str.9)
  call void (ptr, ...) @_ZN5Yosys3logEPKcz(ptr noundef @.str.4)
  call void (ptr, ...) @_ZN5Yosys3logEPKcz(ptr noundef @.str.10)
  call void (ptr, ...) @_ZN5Yosys3logEPKcz(ptr noundef @.str.11)
  call void (ptr, ...) @_ZN5Yosys3logEPKcz(ptr noundef @.str.12)
  call void (ptr, ...) @_ZN5Yosys3logEPKcz(ptr noundef @.str.4)
  call void (ptr, ...) @_ZN5Yosys3logEPKcz(ptr noundef @.str.13)
  call void (ptr, ...) @_ZN5Yosys3logEPKcz(ptr noundef @.str.14)
  call void (ptr, ...) @_ZN5Yosys3logEPKcz(ptr noundef @.str.15)
  call void (ptr, ...) @_ZN5Yosys3logEPKcz(ptr noundef @.str.4)
  call void (ptr, ...) @_ZN5Yosys3logEPKcz(ptr noundef @.str.16)
  call void (ptr, ...) @_ZN5Yosys3logEPKcz(ptr noundef @.str.17)
  call void (ptr, ...) @_ZN5Yosys3logEPKcz(ptr noundef @.str.4)
  call void (ptr, ...) @_ZN5Yosys3logEPKcz(ptr noundef @.str.18)
  call void (ptr, ...) @_ZN5Yosys3logEPKcz(ptr noundef @.str.19)
  call void (ptr, ...) @_ZN5Yosys3logEPKcz(ptr noundef @.str.4)
  call void (ptr, ...) @_ZN5Yosys3logEPKcz(ptr noundef @.str.20)
  call void (ptr, ...) @_ZN5Yosys3logEPKcz(ptr noundef @.str.21)
  call void (ptr, ...) @_ZN5Yosys3logEPKcz(ptr noundef @.str.4)
  call void (ptr, ...) @_ZN5Yosys3logEPKcz(ptr noundef @.str.22)
  call void (ptr, ...) @_ZN5Yosys3logEPKcz(ptr noundef @.str.23)
  call void (ptr, ...) @_ZN5Yosys3logEPKcz(ptr noundef @.str.4)
  call void (ptr, ...) @_ZN5Yosys3logEPKcz(ptr noundef @.str.24)
  call void (ptr, ...) @_ZN5Yosys3logEPKcz(ptr noundef @.str.25)
  call void (ptr, ...) @_ZN5Yosys3logEPKcz(ptr noundef @.str.4)
  call void (ptr, ...) @_ZN5Yosys3logEPKcz(ptr noundef @.str.26)
  call void (ptr, ...) @_ZN5Yosys3logEPKcz(ptr noundef @.str.27)
  call void (ptr, ...) @_ZN5Yosys3logEPKcz(ptr noundef @.str.28)
  call void (ptr, ...) @_ZN5Yosys3logEPKcz(ptr noundef @.str.4)
  call void (ptr, ...) @_ZN5Yosys3logEPKcz(ptr noundef @.str.29)
  call void (ptr, ...) @_ZN5Yosys3logEPKcz(ptr noundef @.str.30)
  call void (ptr, ...) @_ZN5Yosys3logEPKcz(ptr noundef @.str.31)
  call void (ptr, ...) @_ZN5Yosys3logEPKcz(ptr noundef @.str.32)
  call void (ptr, ...) @_ZN5Yosys3logEPKcz(ptr noundef @.str.4)
  call void (ptr, ...) @_ZN5Yosys3logEPKcz(ptr noundef @.str.33)
  call void (ptr, ...) @_ZN5Yosys3logEPKcz(ptr noundef @.str.34)
  call void (ptr, ...) @_ZN5Yosys3logEPKcz(ptr noundef @.str.4)
  call void (ptr, ...) @_ZN5Yosys3logEPKcz(ptr noundef @.str.35)
  call void (ptr, ...) @_ZN5Yosys3logEPKcz(ptr noundef @.str.36)
  call void (ptr, ...) @_ZN5Yosys3logEPKcz(ptr noundef @.str.4)
  call void (ptr, ...) @_ZN5Yosys3logEPKcz(ptr noundef @.str.37)
  call void (ptr, ...) @_ZN5Yosys3logEPKcz(ptr noundef @.str.38)
  call void (ptr, ...) @_ZN5Yosys3logEPKcz(ptr noundef @.str.4)
  call void (ptr, ...) @_ZN5Yosys3logEPKcz(ptr noundef @.str.39)
  call void (ptr, ...) @_ZN5Yosys3logEPKcz(ptr noundef @.str.40)
  call void (ptr, ...) @_ZN5Yosys3logEPKcz(ptr noundef @.str.4)
  call void (ptr, ...) @_ZN5Yosys3logEPKcz(ptr noundef @.str.41)
  call void (ptr, ...) @_ZN5Yosys3logEPKcz(ptr noundef @.str.42)
  call void (ptr, ...) @_ZN5Yosys3logEPKcz(ptr noundef @.str.4)
  call void (ptr, ...) @_ZN5Yosys3logEPKcz(ptr noundef @.str.43)
  call void (ptr, ...) @_ZN5Yosys3logEPKcz(ptr noundef @.str.44)
  call void (ptr, ...) @_ZN5Yosys3logEPKcz(ptr noundef @.str.4)
  call void (ptr, ...) @_ZN5Yosys3logEPKcz(ptr noundef @.str.45)
  call void (ptr, ...) @_ZN5Yosys3logEPKcz(ptr noundef @.str.46)
  call void (ptr, ...) @_ZN5Yosys3logEPKcz(ptr noundef @.str.4)
  call void (ptr, ...) @_ZN5Yosys3logEPKcz(ptr noundef @.str.47)
  call void (ptr, ...) @_ZN5Yosys3logEPKcz(ptr noundef @.str.48)
  call void (ptr, ...) @_ZN5Yosys3logEPKcz(ptr noundef @.str.4)
  ret void
}